target datalayout = "e-m:e-p270:32:32-p271:32:32-p272:64:64-i64:64-i128:128-f80:128-n8:16:32:64-S128"
target triple = "x86_64-pc-linux-gnu"

%struct.PLcword = type { ptr }

@.str.2 = private unnamed_addr constant [11 x i8] c"plpgsql-18\00", align 1
@.str.4 = private unnamed_addr constant [10 x i8] c"pl_gram.y\00", align 1
@.str.80 = private unnamed_addr constant [29 x i8] c"\22%s\22 is not a known variable\00", align 1
@__func__.cword_is_not_variable = private unnamed_addr constant [22 x i8] c"cword_is_not_variable\00", align 1

; Function Attrs: nounwind uwtable
define internal void @cword_is_not_variable(ptr noundef %0, i32 noundef %1, ptr noundef %2) #0 {
  %4 = alloca ptr, align 8
  %5 = alloca i32, align 4
  %6 = alloca ptr, align 8
  store ptr %0, ptr %4, align 8
  store i32 %1, ptr %5, align 4
  store ptr %2, ptr %6, align 8
  br label %7

7:                                                ; preds = %3
  br i1 true, label %8, label %10

8:                                                ; preds = %7
  %9 = call zeroext i1 @errstart_cold(i32 noundef 21, ptr noundef @.str.2) #12
  br i1 %9, label %12, label %22

10:                                               ; preds = %7
  %11 = call zeroext i1 @errstart(i32 noundef 21, ptr noundef @.str.2)
  br i1 %11, label %12, label %22

12:                                               ; preds = %10, %8
  %13 = call i32 @errcode(i32 noundef 16801924)
  %14 = load ptr, ptr %4, align 8
  %15 = getelementptr inbounds nuw %struct.PLcword, ptr %14, i32 0, i32 0
  %16 = load ptr, ptr %15, align 8
  %17 = call ptr @NameListToString(ptr noundef %16)
  %18 = call i32 (ptr, ...) @errmsg(ptr noundef @.str.80, ptr noundef %17)
  %19 = load i32, ptr %5, align 4
  %20 = load ptr, ptr %6, align 8
  %21 = call i32 @plpgsql_scanner_errposition(i32 noundef %19, ptr noundef %20)
  call void @errfinish(ptr noundef @.str.4, i32 noundef 2646, ptr noundef @__func__.cword_is_not_variable)
  br label %22

22:                                               ; preds = %12, %10, %8
  unreachable

23:                                               ; No predecessors!
  ret void
}