; Function Attrs: cold noreturn nounwind uwtable
define internal fastcc void @cword_is_not_variable(ptr noundef nonnull readonly captures(none) %0, i32 noundef %1, ptr noundef %2) unnamed_addr #9 {
  %4 = tail call zeroext i1 @errstart_cold(i32 noundef 21, ptr noundef nonnull @.str.2) #14
  tail call void @llvm.assume(i1 %4)
  %5 = tail call i32 @errcode(i32 noundef 16801924) #12
  %6 = load ptr, ptr %0, align 8
  %7 = tail call ptr @NameListToString(ptr noundef %6) #12
  %8 = tail call i32 (ptr, ...) @errmsg(ptr noundef nonnull @.str.80, ptr noundef %7) #12
  %9 = tail call i32 @plpgsql_scanner_errposition(i32 noundef %1, ptr noundef %2) #12
  tail call void @errfinish(ptr noundef nonnull @.str.4, i32 noundef 2646, ptr noundef nonnull @__func__.cword_is_not_variable) #12
  unreachable
}